target datalayout = "e-m:e-p270:32:32-p271:32:32-p272:64:64-i64:64-i128:128-f80:128-n8:16:32:64-S128"
target triple = "x86_64-pc-linux-gnu"

%struct.GetBitContext = type { ptr, ptr, i32, i32, i32 }
%struct.PutBitContext = type { i32, i32, ptr, ptr, ptr }

@.str.9 = private unnamed_addr constant [43 x i8] c"Internal error, put_bits buffer too small\0A\00", align 1

; Function Attrs: inlinehint nounwind uwtable
define internal void @put_bits_no_assert(ptr noundef %0, i32 noundef %1, i32 noundef %2) #6 {
  %4 = alloca ptr, align 8
  %5 = alloca i32, align 4
  %6 = alloca i32, align 4
  %7 = alloca i32, align 4
  %8 = alloca i32, align 4
  store ptr %0, ptr %4, align 8, !tbaa !99
  store i32 %1, ptr %5, align 4, !tbaa !35
  store i32 %2, ptr %6, align 4, !tbaa !35
  call void @llvm.lifetime.start.p0(i64 4, ptr %7) #11
  call void @llvm.lifetime.start.p0(i64 4, ptr %8) #11
  %9 = load ptr, ptr %4, align 8, !tbaa !99
  %10 = getelementptr inbounds nuw %struct.PutBitContext, ptr %9, i32 0, i32 0
  %11 = load i32, ptr %10, align 8, !tbaa !102
  store i32 %11, ptr %7, align 4, !tbaa !35
  %12 = load ptr, ptr %4, align 8, !tbaa !99
  %13 = getelementptr inbounds nuw %struct.PutBitContext, ptr %12, i32 0, i32 1
  %14 = load i32, ptr %13, align 4, !tbaa !101
  store i32 %14, ptr %8, align 4, !tbaa !35
  %15 = load i32, ptr %5, align 4, !tbaa !35
  %16 = load i32, ptr %8, align 4, !tbaa !35
  %17 = icmp slt i32 %15, %16
  br i1 %17, label %18, label %27

18:                                               ; preds = %3
  %19 = load i32, ptr %7, align 4, !tbaa !35
  %20 = load i32, ptr %5, align 4, !tbaa !35
  %21 = shl i32 %19, %20
  %22 = load i32, ptr %6, align 4, !tbaa !35
  %23 = or i32 %21, %22
  store i32 %23, ptr %7, align 4, !tbaa !35
  %24 = load i32, ptr %5, align 4, !tbaa !35
  %25 = load i32, ptr %8, align 4, !tbaa !35
  %26 = sub nsw i32 %25, %24
  store i32 %26, ptr %8, align 4, !tbaa !35
  br label %65

27:                                               ; preds = %3
  %28 = load i32, ptr %8, align 4, !tbaa !35
  %29 = load i32, ptr %7, align 4, !tbaa !35
  %30 = shl i32 %29, %28
  store i32 %30, ptr %7, align 4, !tbaa !35
  %31 = load i32, ptr %6, align 4, !tbaa !35
  %32 = load i32, ptr %5, align 4, !tbaa !35
  %33 = load i32, ptr %8, align 4, !tbaa !35
  %34 = sub nsw i32 %32, %33
  %35 = lshr i32 %31, %34
  %36 = load i32, ptr %7, align 4, !tbaa !35
  %37 = or i32 %36, %35
  store i32 %37, ptr %7, align 4, !tbaa !35
  %38 = load ptr, ptr %4, align 8, !tbaa !99
  %39 = getelementptr inbounds nuw %struct.PutBitContext, ptr %38, i32 0, i32 4
  %40 = load ptr, ptr %39, align 8, !tbaa !104
  %41 = load ptr, ptr %4, align 8, !tbaa !99
  %42 = getelementptr inbounds nuw %struct.PutBitContext, ptr %41, i32 0, i32 3
  %43 = load ptr, ptr %42, align 8, !tbaa !103
  %44 = ptrtoint ptr %40 to i64
  %45 = ptrtoint ptr %43 to i64
  %46 = sub i64 %44, %45
  %47 = icmp uge i64 %46, 4
  br i1 %47, label %48, label %58

48:                                               ; preds = %27
  %49 = load i32, ptr %7, align 4, !tbaa !35
  %50 = call i32 @av_bswap32(i32 noundef %49) #12
  %51 = load ptr, ptr %4, align 8, !tbaa !99
  %52 = getelementptr inbounds nuw %struct.PutBitContext, ptr %51, i32 0, i32 3
  %53 = load ptr, ptr %52, align 8, !tbaa !103
  store i32 %50, ptr %53, align 1, !tbaa !34
  %54 = load ptr, ptr %4, align 8, !tbaa !99
  %55 = getelementptr inbounds nuw %struct.PutBitContext, ptr %54, i32 0, i32 3
  %56 = load ptr, ptr %55, align 8, !tbaa !103
  %57 = getelementptr inbounds nuw i8, ptr %56, i64 4
  store ptr %57, ptr %55, align 8, !tbaa !103
  br label %59

58:                                               ; preds = %27
  call void (ptr, i32, ptr, ...) @av_log(ptr noundef null, i32 noundef 16, ptr noundef @.str.9)
  br label %59

59:                                               ; preds = %58, %48
  %60 = load i32, ptr %5, align 4, !tbaa !35
  %61 = sub nsw i32 32, %60
  %62 = load i32, ptr %8, align 4, !tbaa !35
  %63 = add nsw i32 %62, %61
  store i32 %63, ptr %8, align 4, !tbaa !35
  %64 = load i32, ptr %6, align 4, !tbaa !35
  store i32 %64, ptr %7, align 4, !tbaa !35
  br label %65

65:                                               ; preds = %59, %18
  %66 = load i32, ptr %7, align 4, !tbaa !35
  %67 = load ptr, ptr %4, align 8, !tbaa !99
  %68 = getelementptr inbounds nuw %struct.PutBitContext, ptr %67, i32 0, i32 0
  store i32 %66, ptr %68, align 8, !tbaa !102
  %69 = load i32, ptr %8, align 4, !tbaa !35
  %70 = load ptr, ptr %4, align 8, !tbaa !99
  %71 = getelementptr inbounds nuw %struct.PutBitContext, ptr %70, i32 0, i32 1
  store i32 %69, ptr %71, align 4, !tbaa !101
  call void @llvm.lifetime.end.p0(i64 4, ptr %8) #11
  call void @llvm.lifetime.end.p0(i64 4, ptr %7) #11
  ret void
}

; Function Attrs: alwaysinline nounwind willreturn memory(none) uwtable
define internal i32 @av_bswap32(i32 noundef %0) #4 {
  %2 = alloca i32, align 4
  store i32 %0, ptr %2, align 4, !tbaa !35
  %3 = load i32, ptr %2, align 4, !tbaa !35
  %4 = shl i32 %3, 8
  %5 = and i32 %4, 65280
  %6 = load i32, ptr %2, align 4, !tbaa !35
  %7 = lshr i32 %6, 8
  %8 = and i32 %7, 255
  %9 = or i32 %5, %8
  %10 = shl i32 %9, 16
  %11 = load i32, ptr %2, align 4, !tbaa !35
  %12 = lshr i32 %11, 16
  %13 = shl i32 %12, 8
  %14 = and i32 %13, 65280
  %15 = load i32, ptr %2, align 4, !tbaa !35
  %16 = lshr i32 %15, 16
  %17 = lshr i32 %16, 8
  %18 = and i32 %17, 255
  %19 = or i32 %14, %18
  %20 = or i32 %10, %19
  ret i32 %20
}

; Function Attrs: inlinehint nounwind uwtable
define internal i32 @get_bits_count(ptr noundef %0) #6 {
  %2 = alloca ptr, align 8
  store ptr %0, ptr %2, align 8, !tbaa !78
  %3 = load ptr, ptr %2, align 8, !tbaa !78
  %4 = getelementptr inbounds nuw %struct.GetBitContext, ptr %3, i32 0, i32 2
  %5 = load i32, ptr %4, align 8, !tbaa !95
  ret i32 %5
}

; Function Attrs: inlinehint nounwind uwtable
define internal void @put_bits(ptr noundef %0, i32 noundef %1, i32 noundef %2) #6 {
  %4 = alloca ptr, align 8
  %5 = alloca i32, align 4
  %6 = alloca i32, align 4
  store ptr %0, ptr %4, align 8, !tbaa !99
  store i32 %1, ptr %5, align 4, !tbaa !35
  store i32 %2, ptr %6, align 4, !tbaa !35
  %7 = load ptr, ptr %4, align 8, !tbaa !99
  %8 = load i32, ptr %5, align 4, !tbaa !35
  %9 = load i32, ptr %6, align 4, !tbaa !35
  call void @put_bits_no_assert(ptr noundef %7, i32 noundef %8, i32 noundef %9)
  ret void
}

; Function Attrs: inlinehint nounwind uwtable
define internal i32 @get_bits(ptr noundef %0, i32 noundef %1) #6 {
  %3 = alloca ptr, align 8
  %4 = alloca i32, align 4
  %5 = alloca i32, align 4
  %6 = alloca i32, align 4
  %7 = alloca i32, align 4
  %8 = alloca i32, align 4
  store ptr %0, ptr %3, align 8, !tbaa !78
  store i32 %1, ptr %4, align 4, !tbaa !35
  call void @llvm.lifetime.start.p0(i64 4, ptr %5) #11
  call void @llvm.lifetime.start.p0(i64 4, ptr %6) #11
  %9 = load ptr, ptr %3, align 8, !tbaa !78
  %10 = getelementptr inbounds nuw %struct.GetBitContext, ptr %9, i32 0, i32 2
  %11 = load i32, ptr %10, align 8, !tbaa !95
  store i32 %11, ptr %6, align 4, !tbaa !35
  call void @llvm.lifetime.start.p0(i64 4, ptr %7) #11
  call void @llvm.lifetime.start.p0(i64 4, ptr %8) #11
  %12 = load ptr, ptr %3, align 8, !tbaa !78
  %13 = getelementptr inbounds nuw %struct.GetBitContext, ptr %12, i32 0, i32 4
  %14 = load i32, ptr %13, align 8, !tbaa !93
  store i32 %14, ptr %8, align 4, !tbaa !35
  %15 = load ptr, ptr %3, align 8, !tbaa !78
  %16 = getelementptr inbounds nuw %struct.GetBitContext, ptr %15, i32 0, i32 0
  %17 = load ptr, ptr %16, align 8, !tbaa !91
  %18 = load i32, ptr %6, align 4, !tbaa !35
  %19 = lshr i32 %18, 3
  %20 = zext i32 %19 to i64
  %21 = getelementptr inbounds nuw i8, ptr %17, i64 %20
  %22 = load i32, ptr %21, align 1, !tbaa !34
  %23 = call i32 @av_bswap32(i32 noundef %22) #12
  %24 = load i32, ptr %6, align 4, !tbaa !35
  %25 = and i32 %24, 7
  %26 = shl i32 %23, %25
  %27 = lshr i32 %26, 0
  store i32 %27, ptr %7, align 4, !tbaa !35
  %28 = load i32, ptr %7, align 4, !tbaa !35
  %29 = load i32, ptr %4, align 4, !tbaa !35
  %30 = sub nsw i32 32, %29
  %31 = lshr i32 %28, %30
  store i32 %31, ptr %5, align 4, !tbaa !35
  %32 = load i32, ptr %8, align 4, !tbaa !35
  %33 = load i32, ptr %6, align 4, !tbaa !35
  %34 = load i32, ptr %4, align 4, !tbaa !35
  %35 = add i32 %33, %34
  %36 = icmp ugt i32 %32, %35
  br i1 %36, label %37, label %41

37:                                               ; preds = %2
  %38 = load i32, ptr %6, align 4, !tbaa !35
  %39 = load i32, ptr %4, align 4, !tbaa !35
  %40 = add i32 %38, %39
  br label %43

41:                                               ; preds = %2
  %42 = load i32, ptr %8, align 4, !tbaa !35
  br label %43

43:                                               ; preds = %41, %37
  %44 = phi i32 [ %40, %37 ], [ %42, %41 ]
  store i32 %44, ptr %6, align 4, !tbaa !35
  %45 = load i32, ptr %6, align 4, !tbaa !35
  %46 = load ptr, ptr %3, align 8, !tbaa !78
  %47 = getelementptr inbounds nuw %struct.GetBitContext, ptr %46, i32 0, i32 2
  store i32 %45, ptr %47, align 8, !tbaa !95
  %48 = load i32, ptr %5, align 4, !tbaa !35
  call void @llvm.lifetime.end.p0(i64 4, ptr %8) #11
  call void @llvm.lifetime.end.p0(i64 4, ptr %7) #11
  call void @llvm.lifetime.end.p0(i64 4, ptr %6) #11
  call void @llvm.lifetime.end.p0(i64 4, ptr %5) #11
  ret i32 %48
}

; Function Attrs: inlinehint nounwind uwtable
define internal i32 @put_bits_left(ptr noundef %0) #6 {
  %2 = alloca ptr, align 8
  store ptr %0, ptr %2, align 8, !tbaa !99
  %3 = load ptr, ptr %2, align 8, !tbaa !99
  %4 = getelementptr inbounds nuw %struct.PutBitContext, ptr %3, i32 0, i32 4
  %5 = load ptr, ptr %4, align 8, !tbaa !104
  %6 = load ptr, ptr %2, align 8, !tbaa !99
  %7 = getelementptr inbounds nuw %struct.PutBitContext, ptr %6, i32 0, i32 3
  %8 = load ptr, ptr %7, align 8, !tbaa !103
  %9 = ptrtoint ptr %5 to i64
  %10 = ptrtoint ptr %8 to i64
  %11 = sub i64 %9, %10
  %12 = mul nsw i64 %11, 8
  %13 = sub nsw i64 %12, 32
  %14 = load ptr, ptr %2, align 8, !tbaa !99
  %15 = getelementptr inbounds nuw %struct.PutBitContext, ptr %14, i32 0, i32 1
  %16 = load i32, ptr %15, align 4, !tbaa !101
  %17 = sext i32 %16 to i64
  %18 = add nsw i64 %13, %17
  %19 = trunc i64 %18 to i32
  ret i32 %19
}

; Function Attrs: inlinehint nounwind uwtable
define internal i32 @get_bits_left(ptr noundef %0) #6 {
  %2 = alloca ptr, align 8
  store ptr %0, ptr %2, align 8, !tbaa !78
  %3 = load ptr, ptr %2, align 8, !tbaa !78
  %4 = getelementptr inbounds nuw %struct.GetBitContext, ptr %3, i32 0, i32 3
  %5 = load i32, ptr %4, align 4, !tbaa !92
  %6 = load ptr, ptr %2, align 8, !tbaa !78
  %7 = call i32 @get_bits_count(ptr noundef %6)
  %8 = sub nsw i32 %5, %7
  ret i32 %8
}

; Function Attrs: nounwind uwtable
define internal void @copy_bits(ptr noundef %0, ptr noundef %1, i32 noundef %2, ptr noundef %3, i32 noundef %4) #1 {
  %6 = alloca ptr, align 8
  %7 = alloca ptr, align 8
  %8 = alloca i32, align 4
  %9 = alloca ptr, align 8
  %10 = alloca i32, align 4
  %11 = alloca i32, align 4
  %12 = alloca i32, align 4
  %13 = alloca i32, align 4
  store ptr %0, ptr %6, align 8, !tbaa !99
  store ptr %1, ptr %7, align 8, !tbaa !82
  store i32 %2, ptr %8, align 4, !tbaa !35
  store ptr %3, ptr %9, align 8, !tbaa !78
  store i32 %4, ptr %10, align 4, !tbaa !35
  call void @llvm.lifetime.start.p0(i64 4, ptr %11) #11
  call void @llvm.lifetime.start.p0(i64 4, ptr %12) #11
  %14 = load ptr, ptr %9, align 8, !tbaa !78
  %15 = call i32 @get_bits_left(ptr noundef %14)
  store i32 %15, ptr %11, align 4, !tbaa !35
  store i32 %15, ptr %12, align 4, !tbaa !35
  %16 = load i32, ptr %12, align 4, !tbaa !35
  %17 = load i32, ptr %10, align 4, !tbaa !35
  %18 = icmp slt i32 %16, %17
  br i1 %18, label %19, label %20

19:                                               ; preds = %5
  store i32 1, ptr %13, align 4
  br label %72

20:                                               ; preds = %5
  %21 = load i32, ptr %10, align 4, !tbaa !35
  %22 = load ptr, ptr %6, align 8, !tbaa !99
  %23 = call i32 @put_bits_left(ptr noundef %22)
  %24 = icmp sgt i32 %21, %23
  br i1 %24, label %25, label %26

25:                                               ; preds = %20
  store i32 1, ptr %13, align 4
  br label %72

26:                                               ; preds = %20
  %27 = load i32, ptr %12, align 4, !tbaa !35
  %28 = and i32 %27, 7
  store i32 %28, ptr %12, align 4, !tbaa !35
  %29 = load i32, ptr %11, align 4, !tbaa !35
  %30 = ashr i32 %29, 3
  store i32 %30, ptr %11, align 4, !tbaa !35
  %31 = load i32, ptr %12, align 4, !tbaa !35
  %32 = load i32, ptr %10, align 4, !tbaa !35
  %33 = icmp sgt i32 %31, %32
  br i1 %33, label %34, label %36

34:                                               ; preds = %26
  %35 = load i32, ptr %10, align 4, !tbaa !35
  br label %38

36:                                               ; preds = %26
  %37 = load i32, ptr %12, align 4, !tbaa !35
  br label %38

38:                                               ; preds = %36, %34
  %39 = phi i32 [ %35, %34 ], [ %37, %36 ]
  store i32 %39, ptr %12, align 4, !tbaa !35
  %40 = icmp sgt i32 %39, 0
  br i1 %40, label %41, label %47

41:                                               ; preds = %38
  %42 = load ptr, ptr %6, align 8, !tbaa !99
  %43 = load i32, ptr %12, align 4, !tbaa !35
  %44 = load ptr, ptr %9, align 8, !tbaa !78
  %45 = load i32, ptr %12, align 4, !tbaa !35
  %46 = call i32 @get_bits(ptr noundef %44, i32 noundef %45)
  call void @put_bits(ptr noundef %42, i32 noundef %43, i32 noundef %46)
  br label %47

47:                                               ; preds = %41, %38
  %48 = load ptr, ptr %6, align 8, !tbaa !99
  %49 = load ptr, ptr %7, align 8, !tbaa !82
  %50 = load i32, ptr %8, align 4, !tbaa !35
  %51 = sext i32 %50 to i64
  %52 = getelementptr inbounds i8, ptr %49, i64 %51
  %53 = load i32, ptr %11, align 4, !tbaa !35
  %54 = sext i32 %53 to i64
  %55 = sub i64 0, %54
  %56 = getelementptr inbounds i8, ptr %52, i64 %55
  %57 = load i32, ptr %10, align 4, !tbaa !35
  %58 = load i32, ptr %12, align 4, !tbaa !35
  %59 = sub nsw i32 %57, %58
  %60 = load i32, ptr %11, align 4, !tbaa !35
  %61 = shl i32 %60, 3
  %62 = icmp sgt i32 %59, %61
  br i1 %62, label %63, label %66

63:                                               ; preds = %47
  %64 = load i32, ptr %11, align 4, !tbaa !35
  %65 = shl i32 %64, 3
  br label %70

66:                                               ; preds = %47
  %67 = load i32, ptr %10, align 4, !tbaa !35
  %68 = load i32, ptr %12, align 4, !tbaa !35
  %69 = sub nsw i32 %67, %68
  br label %70

70:                                               ; preds = %66, %63
  %71 = phi i32 [ %65, %63 ], [ %69, %66 ]
  call void @ff_copy_bits(ptr noundef %48, ptr noundef %56, i32 noundef %71)
  store i32 0, ptr %13, align 4
  br label %72

72:                                               ; preds = %70, %25, %19
  call void @llvm.lifetime.end.p0(i64 4, ptr %12) #11
  call void @llvm.lifetime.end.p0(i64 4, ptr %11) #11
  %73 = load i32, ptr %13, align 4
  switch i32 %73, label %75 [
    i32 0, label %74
    i32 1, label %74
  ]

74:                                               ; preds = %72, %72
  ret void

75:                                               ; preds = %72
  unreachable
}