; Function Attrs: nounwind uwtable
define internal fastcc void @copy_bits(ptr noundef %0, ptr noundef %1, i32 noundef %2, ptr noundef captures(none) %3, i32 noundef %4) unnamed_addr #1 {
  %6 = getelementptr i8, ptr %3, i64 16
  %.val = load i32, ptr %6, align 8, !tbaa !53
  %7 = getelementptr i8, ptr %3, i64 20
  %.val28 = load i32, ptr %7, align 4, !tbaa !50
  %8 = sub nsw i32 %.val28, %.val
  %9 = icmp slt i32 %8, %4
  br i1 %9, label %70, label %10

10:                                               ; preds = %5
  %11 = getelementptr inbounds nuw i8, ptr %0, i64 24
  %12 = load ptr, ptr %11, align 8, !tbaa !82
  %13 = getelementptr inbounds nuw i8, ptr %0, i64 16
  %14 = load ptr, ptr %13, align 8, !tbaa !81
  %15 = ptrtoint ptr %12 to i64
  %16 = ptrtoint ptr %14 to i64
  %17 = sub i64 %15, %16
  %18 = getelementptr inbounds nuw i8, ptr %0, i64 4
  %19 = load i32, ptr %18, align 4, !tbaa !79
  %.tr.i = trunc i64 %17 to i32
  %20 = shl i32 %.tr.i, 3
  %21 = add i32 %19, -32
  %22 = add i32 %21, %20
  %23 = icmp sgt i32 %4, %22
  br i1 %23, label %70, label %24

24:                                               ; preds = %10
  %25 = and i32 %8, 7
  %26 = ashr i32 %8, 3
  %27 = tail call i32 @llvm.smin.i32(i32 %25, i32 %4)
  %28 = icmp sgt i32 %27, 0
  br i1 %28, label %29, label %63

29:                                               ; preds = %24
  %30 = getelementptr inbounds nuw i8, ptr %3, i64 24
  %31 = load i32, ptr %30, align 8, !tbaa !51
  %32 = load ptr, ptr %3, align 8, !tbaa !49
  %33 = lshr i32 %.val, 3
  %34 = zext nneg i32 %33 to i64
  %35 = getelementptr inbounds nuw i8, ptr %32, i64 %34
  %36 = load i32, ptr %35, align 1, !tbaa !30
  %37 = tail call i32 @llvm.bswap.i32(i32 %36)
  %38 = and i32 %.val, 7
  %39 = shl i32 %37, %38
  %40 = sub nuw nsw i32 32, %27
  %41 = lshr i32 %39, %40
  %42 = add i32 %27, %.val
  %43 = tail call i32 @llvm.umin.i32(i32 %31, i32 %42)
  store i32 %43, ptr %6, align 8, !tbaa !53
  %44 = load i32, ptr %0, align 8, !tbaa !80
  %45 = icmp slt i32 %27, %19
  br i1 %45, label %46, label %50

46:                                               ; preds = %29
  %47 = shl i32 %44, %27
  %48 = or disjoint i32 %47, %41
  %49 = sub nsw i32 %19, %27
  br label %put_bits.exit

50:                                               ; preds = %29
  %51 = icmp ugt i64 %17, 3
  br i1 %51, label %52, label %60

52:                                               ; preds = %50
  %53 = shl i32 %44, %19
  %54 = sub nsw i32 %27, %19
  %55 = lshr i32 %41, %54
  %56 = or i32 %55, %53
  %57 = tail call i32 @llvm.bswap.i32(i32 %56)
  store i32 %57, ptr %14, align 1, !tbaa !30
  %58 = load ptr, ptr %13, align 8, !tbaa !81
  %59 = getelementptr inbounds nuw i8, ptr %58, i64 4
  store ptr %59, ptr %13, align 8, !tbaa !81
  br label %61

60:                                               ; preds = %50
  tail call void (ptr, i32, ptr, ...) @av_log(ptr noundef null, i32 noundef 16, ptr noundef nonnull @.str.9) #12
  br label %61

61:                                               ; preds = %60, %52
  %reass.sub = sub i32 %19, %27
  %62 = add i32 %reass.sub, 32
  br label %put_bits.exit

put_bits.exit:                                    ; preds = %46, %61
  %.026.i.i = phi i32 [ %48, %46 ], [ %41, %61 ]
  %.0.i.i = phi i32 [ %49, %46 ], [ %62, %61 ]
  store i32 %.026.i.i, ptr %0, align 8, !tbaa !80
  store i32 %.0.i.i, ptr %18, align 4, !tbaa !79
  br label %63

63:                                               ; preds = %put_bits.exit, %24
  %64 = sext i32 %2 to i64
  %65 = getelementptr inbounds i8, ptr %1, i64 %64
  %narrow = sub nsw i32 0, %26
  %66 = sext i32 %narrow to i64
  %67 = getelementptr inbounds i8, ptr %65, i64 %66
  %68 = sub nsw i32 %4, %27
  %69 = and i32 %8, -8
  %. = tail call i32 @llvm.smin.i32(i32 %68, i32 %69)
  tail call void @ff_copy_bits(ptr noundef nonnull %0, ptr noundef %67, i32 noundef %.) #12
  br label %70

70:                                               ; preds = %10, %5, %63
  ret void
}